target datalayout = "e-m:e-p270:32:32-p271:32:32-p272:64:64-i64:64-i128:128-f80:128-n8:16:32:64-S128"
target triple = "x86_64-pc-linux-gnu"

%"class.sls::bv_eval" = type <{ ptr, ptr, ptr, %"class.sls::bv_lookahead", %class.bv_util, %"class.sls::bv_fixed", [8 x i8], %class.ptr_vector, %class.random_gen, %"struct.sls::bv_eval::config", %class.svector.7, i32, i32, %class.svector.9, %class.svector.11, %class.scoped_ptr_vector, %"class.sls::bvect", %"class.sls::bvect", %"class.sls::bvect", %"class.sls::bvect", %"class.sls::bvect", %"class.sls::bvect", %"class.sls::bvect", %"class.sls::bvect", %"class.sls::bvect", %"class.sls::bvect", %"class.sls::bvect", %"class.sls::bvect", %"class.sls::bvect", i8, [7 x i8] }>
%"class.sls::bv_lookahead" = type { %class.bv_util, ptr, ptr, ptr, %"struct.sls::bv_lookahead::config", %"struct.sls::bv_lookahead::stats", %"class.sls::bvect", %"class.sls::bvect", %class.ptr_vector, %class.svector.1, %class.vector.3, %class.obj_mark, double, double, %"class.sls::bvect", ptr, ptr, %class.ptr_vector, %class.vector.4, %class.obj_mark, i32, %class.tracked_uint_set, i32, i32 }
%"struct.sls::bv_lookahead::config" = type <{ i8, [7 x i8], double, i32, i32, i8, i8, i8, i8, i32, i32, i32, i32, i8, [3 x i8], i32, i32, i32, i8, [3 x i8], double, double, i8, [7 x i8], double, i8, i8, i8, [5 x i8] }>
%"struct.sls::bv_lookahead::stats" = type { i32, i32, i32, i32, i32, i32 }
%class.svector.1 = type { %class.vector.2 }
%class.vector.2 = type { ptr }
%class.vector.3 = type { ptr }
%class.vector.4 = type { ptr }
%class.obj_mark = type { [8 x i8], %class.bit_vector }
%class.bit_vector = type { i32, i32, ptr }
%class.tracked_uint_set = type { %class.svector.5, %class.svector }
%class.svector.5 = type { %class.vector.6 }
%class.vector.6 = type { ptr }
%class.svector = type { %class.vector }
%class.vector = type { ptr }
%class.bv_util = type { %class.bv_recognizers, ptr, ptr }
%class.bv_recognizers = type { i32 }
%"class.sls::bv_fixed" = type { ptr, ptr, ptr, ptr, ptr }
%class.ptr_vector = type { %class.vector.0 }
%class.vector.0 = type { ptr }
%class.random_gen = type { i32 }
%"struct.sls::bv_eval::config" = type { i32 }
%class.svector.7 = type { %class.vector.8 }
%class.vector.8 = type { ptr }
%class.svector.9 = type { %class.vector.10 }
%class.vector.10 = type { ptr }
%class.svector.11 = type { %class.vector.12 }
%class.vector.12 = type { ptr }
%class.scoped_ptr_vector = type { %class.ptr_vector.13 }
%class.ptr_vector.13 = type { %class.vector.14 }
%class.vector.14 = type { ptr }
%"class.sls::bvect" = type <{ %class.svector, i32, i32, i32, [4 x i8] }>
%"class.sls::context" = type <{ ptr, ptr, %class.scoped_ptr_vector.15, %class.indexed_uint_set, %class.indexed_uint_set, %class.ref_vector, %class.svector, %class.params_ref, %class.vector.18, %class.svector.19, %class.svector.19, %class.indexed_uint_set, %class.random_gen, i8, i8, i8, i8, %class.ref_vector, %class.ref_vector, %class.ptr_vector, %"struct.sls::context::greater_depth", %"struct.sls::context::less_depth", %class.heap, %class.heap.23, %class.uint_set, %class.ref_vector, %"struct.sls::context::stats", [4 x i8], %class.ref_vector, i8, [7 x i8] }>
%class.scoped_ptr_vector.15 = type { %class.ptr_vector.16 }
%class.ptr_vector.16 = type { %class.vector.17 }
%class.vector.17 = type { ptr }
%class.params_ref = type { ptr }
%class.vector.18 = type { ptr }
%class.svector.19 = type { %class.vector.20 }
%class.vector.20 = type { ptr }
%class.indexed_uint_set = type { i32, %class.svector, %class.svector }
%"struct.sls::context::greater_depth" = type { ptr }
%"struct.sls::context::less_depth" = type { ptr }
%class.heap = type { %"struct.sls::context::greater_depth", %class.svector.21, %class.svector.21 }
%class.svector.21 = type { %class.vector.22 }
%class.vector.22 = type { ptr }
%class.heap.23 = type { %"struct.sls::context::less_depth", %class.svector.21, %class.svector.21 }
%class.uint_set = type { %class.svector }
%"struct.sls::context::stats" = type { i32, i32, i32 }
%class.ref_vector = type { %class.ref_vector_core }
%class.ref_vector_core = type { %class.ref_manager_wrapper, %class.ptr_vector }
%class.ref_manager_wrapper = type { ptr }

; Function Attrs: mustprogress uwtable
define linkonce_odr hidden void @_ZN6vectorIP4exprLb0EjE11free_memoryEv(ptr noundef nonnull align 8 dereferenceable(8) %0) #4 comdat align 2 {
  %2 = alloca ptr, align 8
  store ptr %0, ptr %2, align 8, !tbaa !115
  %3 = load ptr, ptr %2, align 8
  %4 = getelementptr inbounds nuw %class.vector.0, ptr %3, i32 0, i32 0
  %5 = load ptr, ptr %4, align 8, !tbaa !383
  %6 = getelementptr inbounds i32, ptr %5, i64 -2
  call void @_ZN6memory10deallocateEPv(ptr noundef %6)
  ret void
}

; Function Attrs: mustprogress nounwind uwtable
define linkonce_odr hidden void @_ZN6vectorIjLb0EjEC2Ev(ptr noundef nonnull align 8 dereferenceable(8) %0) unnamed_addr #5 comdat align 2 {
  %2 = alloca ptr, align 8
  store ptr %0, ptr %2, align 8, !tbaa !149
  %3 = load ptr, ptr %2, align 8
  %4 = getelementptr inbounds nuw %class.vector, ptr %3, i32 0, i32 0
  store ptr null, ptr %4, align 8, !tbaa !151
  ret void
}

; Function Attrs: mustprogress nounwind uwtable
define linkonce_odr hidden void @_ZN6vectorIPN3sls12bv_valuationELb0EjEC2Ev(ptr noundef nonnull align 8 dereferenceable(8) %0) unnamed_addr #5 comdat align 2 {
  %2 = alloca ptr, align 8
  store ptr %0, ptr %2, align 8, !tbaa !389
  %3 = load ptr, ptr %2, align 8
  %4 = getelementptr inbounds nuw %class.vector.14, ptr %3, i32 0, i32 0
  store ptr null, ptr %4, align 8, !tbaa !391
  ret void
}

; Function Attrs: noinline noreturn nounwind uwtable
define linkonce_odr hidden void @__clang_call_terminate(ptr noundef %0) #10 comdat {
  %2 = call ptr @__cxa_begin_catch(ptr %0) #3
  call void @_ZSt9terminatev() #19
  unreachable
}

; Function Attrs: mustprogress uwtable
define linkonce_odr hidden void @_ZN6vectorIP4exprLb0EjE7destroyEv(ptr noundef nonnull align 8 dereferenceable(8) %0) #4 comdat align 2 {
  %2 = alloca ptr, align 8
  store ptr %0, ptr %2, align 8, !tbaa !115
  %3 = load ptr, ptr %2, align 8
  %4 = getelementptr inbounds nuw %class.vector.0, ptr %3, i32 0, i32 0
  %5 = load ptr, ptr %4, align 8, !tbaa !383
  %6 = icmp ne ptr %5, null
  br i1 %6, label %7, label %8

7:                                                ; preds = %1
  call void @_ZN6vectorIP4exprLb0EjE11free_memoryEv(ptr noundef nonnull align 8 dereferenceable(8) %3)
  br label %8

8:                                                ; preds = %7, %1
  ret void
}

; Function Attrs: mustprogress nounwind uwtable
define linkonce_odr hidden void @_ZN7svectorIjjEC2Ev(ptr noundef nonnull align 8 dereferenceable(8) %0) unnamed_addr #5 comdat align 2 {
  %2 = alloca ptr, align 8
  store ptr %0, ptr %2, align 8, !tbaa !392
  %3 = load ptr, ptr %2, align 8
  call void @_ZN6vectorIjLb0EjEC2Ev(ptr noundef nonnull align 8 dereferenceable(8) %3) #3
  ret void
}

; Function Attrs: mustprogress nounwind uwtable
define linkonce_odr hidden void @_ZN10ptr_vectorIN3sls12bv_valuationEEC2Ev(ptr noundef nonnull align 8 dereferenceable(8) %0) unnamed_addr #5 comdat align 2 {
  %2 = alloca ptr, align 8
  store ptr %0, ptr %2, align 8, !tbaa !387
  %3 = load ptr, ptr %2, align 8
  call void @_ZN6vectorIPN3sls12bv_valuationELb0EjEC2Ev(ptr noundef nonnull align 8 dereferenceable(8) %3) #3
  ret void
}

; Function Attrs: mustprogress nounwind uwtable
define linkonce_odr hidden void @_ZN6vectorISt4pairIj5lboolELb0EjEC2Ev(ptr noundef nonnull align 8 dereferenceable(8) %0) unnamed_addr #5 comdat align 2 {
  %2 = alloca ptr, align 8
  store ptr %0, ptr %2, align 8, !tbaa !177
  %3 = load ptr, ptr %2, align 8
  %4 = getelementptr inbounds nuw %class.vector.12, ptr %3, i32 0, i32 0
  store ptr null, ptr %4, align 8, !tbaa !180
  ret void
}

; Function Attrs: mustprogress nounwind uwtable
define linkonce_odr hidden void @_ZN6vectorI5lboolLb0EjEC2Ev(ptr noundef nonnull align 8 dereferenceable(8) %0) unnamed_addr #5 comdat align 2 {
  %2 = alloca ptr, align 8
  store ptr %0, ptr %2, align 8, !tbaa !174
  %3 = load ptr, ptr %2, align 8
  %4 = getelementptr inbounds nuw %class.vector.10, ptr %3, i32 0, i32 0
  store ptr null, ptr %4, align 8, !tbaa !176
  ret void
}

; Function Attrs: mustprogress nounwind uwtable
define linkonce_odr hidden void @_ZN6vectorIbLb0EjEC2Ev(ptr noundef nonnull align 8 dereferenceable(8) %0) unnamed_addr #5 comdat align 2 {
  %2 = alloca ptr, align 8
  store ptr %0, ptr %2, align 8, !tbaa !384
  %3 = load ptr, ptr %2, align 8
  %4 = getelementptr inbounds nuw %class.vector.8, ptr %3, i32 0, i32 0
  store ptr null, ptr %4, align 8, !tbaa !386
  ret void
}

; Function Attrs: mustprogress nounwind uwtable
define linkonce_odr hidden void @_ZN6vectorIP4exprLb0EjEC2Ev(ptr noundef nonnull align 8 dereferenceable(8) %0) unnamed_addr #5 comdat align 2 {
  %2 = alloca ptr, align 8
  store ptr %0, ptr %2, align 8, !tbaa !115
  %3 = load ptr, ptr %2, align 8
  %4 = getelementptr inbounds nuw %class.vector.0, ptr %3, i32 0, i32 0
  store ptr null, ptr %4, align 8, !tbaa !383
  ret void
}

; Function Attrs: mustprogress nounwind uwtable
define linkonce_odr hidden void @_ZN6vectorIP4exprLb0EjED2Ev(ptr noundef nonnull align 8 dereferenceable(8) %0) unnamed_addr #5 comdat align 2 personality ptr @__gxx_personality_v0 {
  %2 = alloca ptr, align 8
  store ptr %0, ptr %2, align 8, !tbaa !115
  %3 = load ptr, ptr %2, align 8
  invoke void @_ZN6vectorIP4exprLb0EjE7destroyEv(ptr noundef nonnull align 8 dereferenceable(8) %3)
          to label %4 unwind label %5

4:                                                ; preds = %1
  ret void

5:                                                ; preds = %1
  %6 = landingpad { ptr, i32 }
          catch ptr null
  %7 = extractvalue { ptr, i32 } %6, 0
  call void @__clang_call_terminate(ptr %7) #19
  unreachable
}

; Function Attrs: mustprogress nounwind uwtable
define linkonce_odr hidden void @_ZN3sls5bvectC2Ev(ptr noundef nonnull align 8 dereferenceable(20) %0) unnamed_addr #5 comdat align 2 {
  %2 = alloca ptr, align 8
  store ptr %0, ptr %2, align 8, !tbaa !110
  %3 = load ptr, ptr %2, align 8
  call void @_ZN7svectorIjjEC2Ev(ptr noundef nonnull align 8 dereferenceable(8) %3) #3
  %4 = getelementptr inbounds nuw %"class.sls::bvect", ptr %3, i32 0, i32 1
  store i32 0, ptr %4, align 8, !tbaa !112
  %5 = getelementptr inbounds nuw %"class.sls::bvect", ptr %3, i32 0, i32 2
  store i32 0, ptr %5, align 4, !tbaa !113
  %6 = getelementptr inbounds nuw %"class.sls::bvect", ptr %3, i32 0, i32 3
  store i32 0, ptr %6, align 8, !tbaa !114
  ret void
}

; Function Attrs: mustprogress nounwind uwtable
define linkonce_odr hidden void @_ZN17scoped_ptr_vectorIN3sls12bv_valuationEEC2Ev(ptr noundef nonnull align 8 dereferenceable(8) %0) unnamed_addr #5 comdat align 2 {
  %2 = alloca ptr, align 8
  store ptr %0, ptr %2, align 8, !tbaa !108
  %3 = load ptr, ptr %2, align 8
  %4 = getelementptr inbounds nuw %class.scoped_ptr_vector, ptr %3, i32 0, i32 0
  call void @_ZN10ptr_vectorIN3sls12bv_valuationEEC2Ev(ptr noundef nonnull align 8 dereferenceable(8) %4) #3
  ret void
}

; Function Attrs: mustprogress nounwind uwtable
define linkonce_odr hidden void @_ZN7svectorISt4pairIj5lboolEjEC2Ev(ptr noundef nonnull align 8 dereferenceable(8) %0) unnamed_addr #5 comdat align 2 {
  %2 = alloca ptr, align 8
  store ptr %0, ptr %2, align 8, !tbaa !106
  %3 = load ptr, ptr %2, align 8
  call void @_ZN6vectorISt4pairIj5lboolELb0EjEC2Ev(ptr noundef nonnull align 8 dereferenceable(8) %3) #3
  ret void
}

; Function Attrs: mustprogress nounwind uwtable
define linkonce_odr hidden void @_ZN7svectorI5lbooljEC2Ev(ptr noundef nonnull align 8 dereferenceable(8) %0) unnamed_addr #5 comdat align 2 {
  %2 = alloca ptr, align 8
  store ptr %0, ptr %2, align 8, !tbaa !104
  %3 = load ptr, ptr %2, align 8
  call void @_ZN6vectorI5lboolLb0EjEC2Ev(ptr noundef nonnull align 8 dereferenceable(8) %3) #3
  ret void
}

; Function Attrs: mustprogress nounwind uwtable
define linkonce_odr hidden void @_ZN7svectorIbjEC2Ev(ptr noundef nonnull align 8 dereferenceable(8) %0) unnamed_addr #5 comdat align 2 {
  %2 = alloca ptr, align 8
  store ptr %0, ptr %2, align 8, !tbaa !102
  %3 = load ptr, ptr %2, align 8
  call void @_ZN6vectorIbLb0EjEC2Ev(ptr noundef nonnull align 8 dereferenceable(8) %3) #3
  ret void
}

; Function Attrs: inlinehint mustprogress nounwind uwtable
define linkonce_odr hidden void @_ZN3sls7bv_eval6configC2Ev(ptr noundef nonnull align 4 dereferenceable(4) %0) unnamed_addr #6 comdat align 2 {
  %2 = alloca ptr, align 8
  store ptr %0, ptr %2, align 8, !tbaa !99
  %3 = load ptr, ptr %2, align 8
  %4 = getelementptr inbounds nuw %"struct.sls::bv_eval::config", ptr %3, i32 0, i32 0
  store i32 50, ptr %4, align 4, !tbaa !101
  ret void
}

; Function Attrs: mustprogress nounwind uwtable
define linkonce_odr hidden void @_ZN10random_genC2Ej(ptr noundef nonnull align 4 dereferenceable(4) %0, i32 noundef %1) unnamed_addr #5 comdat align 2 {
  %3 = alloca ptr, align 8
  %4 = alloca i32, align 4
  store ptr %0, ptr %3, align 8, !tbaa !95
  store i32 %1, ptr %4, align 4, !tbaa !97
  %5 = load ptr, ptr %3, align 8
  %6 = getelementptr inbounds nuw %class.random_gen, ptr %5, i32 0, i32 0
  %7 = load i32, ptr %4, align 4, !tbaa !97
  store i32 %7, ptr %6, align 4, !tbaa !98
  ret void
}

; Function Attrs: mustprogress nounwind uwtable
define linkonce_odr hidden void @_ZN10ptr_vectorI4exprEC2Ev(ptr noundef nonnull align 8 dereferenceable(8) %0) unnamed_addr #5 comdat align 2 {
  %2 = alloca ptr, align 8
  store ptr %0, ptr %2, align 8, !tbaa !94
  %3 = load ptr, ptr %2, align 8
  call void @_ZN6vectorIP4exprLb0EjEC2Ev(ptr noundef nonnull align 8 dereferenceable(8) %3) #3
  ret void
}

; Function Attrs: mustprogress nounwind uwtable
define linkonce_odr hidden noundef nonnull align 8 dereferenceable(976) ptr @_ZN3sls7context11get_managerEv(ptr noundef nonnull align 8 dereferenceable(321) %0) #5 comdat align 2 {
  %2 = alloca ptr, align 8
  store ptr %0, ptr %2, align 8, !tbaa !10
  %3 = load ptr, ptr %2, align 8
  %4 = getelementptr inbounds nuw %"class.sls::context", ptr %3, i32 0, i32 0
  %5 = load ptr, ptr %4, align 8, !tbaa !68
  ret ptr %5
}

; Function Attrs: mustprogress uwtable
define hidden void @_ZN3sls7bv_evalC2ERNS_8bv_termsERNS_7contextE(ptr noundef nonnull align 8 dereferenceable(865) %0, ptr noundef nonnull align 8 dereferenceable(64) %1, ptr noundef nonnull align 8 dereferenceable(321) %2) unnamed_addr #4 align 2 personality ptr @__gxx_personality_v0 {
  %4 = alloca ptr, align 8
  %5 = alloca ptr, align 8
  %6 = alloca ptr, align 8
  %7 = alloca ptr, align 8
  %8 = alloca i32, align 4
  store ptr %0, ptr %4, align 8, !tbaa !3
  store ptr %1, ptr %5, align 8, !tbaa !8
  store ptr %2, ptr %6, align 8, !tbaa !10
  %9 = load ptr, ptr %4, align 8
  %10 = getelementptr inbounds nuw %"class.sls::bv_eval", ptr %9, i32 0, i32 0
  %11 = load ptr, ptr %6, align 8, !tbaa !10
  %12 = call noundef nonnull align 8 dereferenceable(976) ptr @_ZN3sls7context11get_managerEv(ptr noundef nonnull align 8 dereferenceable(321) %11)
  store ptr %12, ptr %10, align 8, !tbaa !12
  %13 = getelementptr inbounds nuw %"class.sls::bv_eval", ptr %9, i32 0, i32 1
  %14 = load ptr, ptr %6, align 8, !tbaa !10
  store ptr %14, ptr %13, align 8, !tbaa !10
  %15 = getelementptr inbounds nuw %"class.sls::bv_eval", ptr %9, i32 0, i32 2
  %16 = load ptr, ptr %5, align 8, !tbaa !8
  store ptr %16, ptr %15, align 8, !tbaa !8
  %17 = getelementptr inbounds nuw %"class.sls::bv_eval", ptr %9, i32 0, i32 3
  call void @_ZN3sls12bv_lookaheadC1ERNS_7bv_evalE(ptr noundef nonnull align 8 dereferenceable(400) %17, ptr noundef nonnull align 8 dereferenceable(865) %9)
  %18 = getelementptr inbounds nuw %"class.sls::bv_eval", ptr %9, i32 0, i32 4
  %19 = getelementptr inbounds nuw %"class.sls::bv_eval", ptr %9, i32 0, i32 0
  %20 = load ptr, ptr %19, align 8, !tbaa !14
  invoke void @_ZN7bv_utilC1ER11ast_manager(ptr noundef nonnull align 8 dereferenceable(24) %18, ptr noundef nonnull align 8 dereferenceable(976) %20)
          to label %21 unwind label %50

21:                                               ; preds = %3
  %22 = getelementptr inbounds nuw %"class.sls::bv_eval", ptr %9, i32 0, i32 5
  %23 = load ptr, ptr %5, align 8, !tbaa !8
  %24 = load ptr, ptr %6, align 8, !tbaa !10
  invoke void @_ZN3sls8bv_fixedC1ERNS_7bv_evalERNS_8bv_termsERNS_7contextE(ptr noundef nonnull align 8 dereferenceable(40) %22, ptr noundef nonnull align 8 dereferenceable(865) %9, ptr noundef nonnull align 8 dereferenceable(64) %23, ptr noundef nonnull align 8 dereferenceable(321) %24)
          to label %25 unwind label %50

25:                                               ; preds = %21
  %26 = getelementptr inbounds nuw %"class.sls::bv_eval", ptr %9, i32 0, i32 7
  call void @_ZN10ptr_vectorI4exprEC2Ev(ptr noundef nonnull align 8 dereferenceable(8) %26) #3
  %27 = getelementptr inbounds nuw %"class.sls::bv_eval", ptr %9, i32 0, i32 8
  invoke void @_ZN10random_genC2Ej(ptr noundef nonnull align 4 dereferenceable(4) %27, i32 noundef 0)
          to label %28 unwind label %54

28:                                               ; preds = %25
  %29 = getelementptr inbounds nuw %"class.sls::bv_eval", ptr %9, i32 0, i32 9
  call void @_ZN3sls7bv_eval6configC2Ev(ptr noundef nonnull align 4 dereferenceable(4) %29) #3
  %30 = getelementptr inbounds nuw %"class.sls::bv_eval", ptr %9, i32 0, i32 10
  call void @_ZN7svectorIbjEC2Ev(ptr noundef nonnull align 8 dereferenceable(8) %30) #3
  %31 = getelementptr inbounds nuw %"class.sls::bv_eval", ptr %9, i32 0, i32 11
  store i32 0, ptr %31, align 8, !tbaa !65
  %32 = getelementptr inbounds nuw %"class.sls::bv_eval", ptr %9, i32 0, i32 12
  store i32 10, ptr %32, align 4, !tbaa !66
  %33 = getelementptr inbounds nuw %"class.sls::bv_eval", ptr %9, i32 0, i32 13
  call void @_ZN7svectorI5lbooljEC2Ev(ptr noundef nonnull align 8 dereferenceable(8) %33) #3
  %34 = getelementptr inbounds nuw %"class.sls::bv_eval", ptr %9, i32 0, i32 14
  call void @_ZN7svectorISt4pairIj5lboolEjEC2Ev(ptr noundef nonnull align 8 dereferenceable(8) %34) #3
  %35 = getelementptr inbounds nuw %"class.sls::bv_eval", ptr %9, i32 0, i32 15
  call void @_ZN17scoped_ptr_vectorIN3sls12bv_valuationEEC2Ev(ptr noundef nonnull align 8 dereferenceable(8) %35) #3
  %36 = getelementptr inbounds nuw %"class.sls::bv_eval", ptr %9, i32 0, i32 16
  call void @_ZN3sls5bvectC2Ev(ptr noundef nonnull align 8 dereferenceable(20) %36) #3
  %37 = getelementptr inbounds nuw %"class.sls::bv_eval", ptr %9, i32 0, i32 17
  call void @_ZN3sls5bvectC2Ev(ptr noundef nonnull align 8 dereferenceable(20) %37) #3
  %38 = getelementptr inbounds nuw %"class.sls::bv_eval", ptr %9, i32 0, i32 18
  call void @_ZN3sls5bvectC2Ev(ptr noundef nonnull align 8 dereferenceable(20) %38) #3
  %39 = getelementptr inbounds nuw %"class.sls::bv_eval", ptr %9, i32 0, i32 19
  call void @_ZN3sls5bvectC2Ev(ptr noundef nonnull align 8 dereferenceable(20) %39) #3
  %40 = getelementptr inbounds nuw %"class.sls::bv_eval", ptr %9, i32 0, i32 20
  call void @_ZN3sls5bvectC2Ev(ptr noundef nonnull align 8 dereferenceable(20) %40) #3
  %41 = getelementptr inbounds nuw %"class.sls::bv_eval", ptr %9, i32 0, i32 21
  call void @_ZN3sls5bvectC2Ev(ptr noundef nonnull align 8 dereferenceable(20) %41) #3
  %42 = getelementptr inbounds nuw %"class.sls::bv_eval", ptr %9, i32 0, i32 22
  call void @_ZN3sls5bvectC2Ev(ptr noundef nonnull align 8 dereferenceable(20) %42) #3
  %43 = getelementptr inbounds nuw %"class.sls::bv_eval", ptr %9, i32 0, i32 23
  call void @_ZN3sls5bvectC2Ev(ptr noundef nonnull align 8 dereferenceable(20) %43) #3
  %44 = getelementptr inbounds nuw %"class.sls::bv_eval", ptr %9, i32 0, i32 24
  call void @_ZN3sls5bvectC2Ev(ptr noundef nonnull align 8 dereferenceable(20) %44) #3
  %45 = getelementptr inbounds nuw %"class.sls::bv_eval", ptr %9, i32 0, i32 25
  call void @_ZN3sls5bvectC2Ev(ptr noundef nonnull align 8 dereferenceable(20) %45) #3
  %46 = getelementptr inbounds nuw %"class.sls::bv_eval", ptr %9, i32 0, i32 26
  call void @_ZN3sls5bvectC2Ev(ptr noundef nonnull align 8 dereferenceable(20) %46) #3
  %47 = getelementptr inbounds nuw %"class.sls::bv_eval", ptr %9, i32 0, i32 27
  call void @_ZN3sls5bvectC2Ev(ptr noundef nonnull align 8 dereferenceable(20) %47) #3
  %48 = getelementptr inbounds nuw %"class.sls::bv_eval", ptr %9, i32 0, i32 28
  call void @_ZN3sls5bvectC2Ev(ptr noundef nonnull align 8 dereferenceable(20) %48) #3
  %49 = getelementptr inbounds nuw %"class.sls::bv_eval", ptr %9, i32 0, i32 29
  store i8 0, ptr %49, align 8, !tbaa !67
  ret void

50:                                               ; preds = %21, %3
  %51 = landingpad { ptr, i32 }
          cleanup
  %52 = extractvalue { ptr, i32 } %51, 0
  store ptr %52, ptr %7, align 8
  %53 = extractvalue { ptr, i32 } %51, 1
  store i32 %53, ptr %8, align 4
  br label %58

54:                                               ; preds = %25
  %55 = landingpad { ptr, i32 }
          cleanup
  %56 = extractvalue { ptr, i32 } %55, 0
  store ptr %56, ptr %7, align 8
  %57 = extractvalue { ptr, i32 } %55, 1
  store i32 %57, ptr %8, align 4
  call void @_ZN6vectorIP4exprLb0EjED2Ev(ptr noundef nonnull align 8 dereferenceable(8) %26) #3
  br label %58

58:                                               ; preds = %54, %50
  call void @_ZN3sls12bv_lookaheadD2Ev(ptr noundef nonnull align 8 dereferenceable(400) %17) #3
  br label %59

59:                                               ; preds = %58
  %60 = load ptr, ptr %7, align 8
  %61 = load i32, ptr %8, align 4
  %62 = insertvalue { ptr, i32 } poison, ptr %60, 0
  %63 = insertvalue { ptr, i32 } %62, i32 %61, 1
  resume { ptr, i32 } %63
}