; Function Attrs: mustprogress uwtable
define hidden void @_ZN3sls7bv_evalC2ERNS_8bv_termsERNS_7contextE(ptr noundef nonnull align 8 dereferenceable(865) initializes((0, 24)) %0, ptr noundef nonnull align 8 dereferenceable(64) %1, ptr noundef nonnull align 8 dereferenceable(321) %2) unnamed_addr #3 align 2 personality ptr @__gxx_personality_v0 {
  %4 = load ptr, ptr %2, align 8, !tbaa !3
  store ptr %4, ptr %0, align 8, !tbaa !44
  %5 = getelementptr inbounds nuw i8, ptr %0, i64 8
  store ptr %2, ptr %5, align 8, !tbaa !45
  %6 = getelementptr inbounds nuw i8, ptr %0, i64 16
  store ptr %1, ptr %6, align 8, !tbaa !46
  %7 = getelementptr inbounds nuw i8, ptr %0, i64 24
  tail call void @_ZN3sls12bv_lookaheadC1ERNS_7bv_evalE(ptr noundef nonnull align 8 dereferenceable(400) %7, ptr noundef nonnull align 8 dereferenceable(865) %0)
  %8 = getelementptr inbounds nuw i8, ptr %0, i64 424
  %9 = load ptr, ptr %0, align 8, !tbaa !48
  invoke void @_ZN7bv_utilC1ER11ast_manager(ptr noundef nonnull align 8 dereferenceable(24) %8, ptr noundef nonnull align 8 dereferenceable(976) %9)
          to label %10 unwind label %33

10:                                               ; preds = %3
  %11 = getelementptr inbounds nuw i8, ptr %0, i64 448
  invoke void @_ZN3sls8bv_fixedC1ERNS_7bv_evalERNS_8bv_termsERNS_7contextE(ptr noundef nonnull align 8 dereferenceable(40) %11, ptr noundef nonnull align 8 dereferenceable(865) %0, ptr noundef nonnull align 8 dereferenceable(64) %1, ptr noundef nonnull align 8 dereferenceable(321) %2)
          to label %12 unwind label %33

12:                                               ; preds = %10
  %13 = getelementptr inbounds nuw i8, ptr %0, i64 496
  store ptr null, ptr %13, align 8, !tbaa !90
  %14 = getelementptr inbounds nuw i8, ptr %0, i64 504
  store i32 0, ptr %14, align 8, !tbaa !91
  %15 = getelementptr inbounds nuw i8, ptr %0, i64 508
  store i32 50, ptr %15, align 4, !tbaa !92
  %16 = getelementptr inbounds nuw i8, ptr %0, i64 512
  store ptr null, ptr %16, align 8, !tbaa !93
  %17 = getelementptr inbounds nuw i8, ptr %0, i64 520
  store i32 0, ptr %17, align 8, !tbaa !94
  %18 = getelementptr inbounds nuw i8, ptr %0, i64 524
  store i32 10, ptr %18, align 4, !tbaa !95
  %19 = getelementptr inbounds nuw i8, ptr %0, i64 528
  %20 = getelementptr inbounds nuw i8, ptr %0, i64 576
  tail call void @llvm.memset.p0.i64(ptr noundef nonnull align 8 dereferenceable(20) %20, i8 0, i64 20, i1 false)
  %21 = getelementptr inbounds nuw i8, ptr %0, i64 600
  tail call void @llvm.memset.p0.i64(ptr noundef nonnull align 8 dereferenceable(20) %21, i8 0, i64 20, i1 false)
  %22 = getelementptr inbounds nuw i8, ptr %0, i64 624
  tail call void @llvm.memset.p0.i64(ptr noundef nonnull align 8 dereferenceable(20) %22, i8 0, i64 20, i1 false)
  %23 = getelementptr inbounds nuw i8, ptr %0, i64 648
  tail call void @llvm.memset.p0.i64(ptr noundef nonnull align 8 dereferenceable(20) %23, i8 0, i64 20, i1 false)
  %24 = getelementptr inbounds nuw i8, ptr %0, i64 672
  tail call void @llvm.memset.p0.i64(ptr noundef nonnull align 8 dereferenceable(20) %24, i8 0, i64 20, i1 false)
  %25 = getelementptr inbounds nuw i8, ptr %0, i64 696
  tail call void @llvm.memset.p0.i64(ptr noundef nonnull align 8 dereferenceable(20) %25, i8 0, i64 20, i1 false)
  %26 = getelementptr inbounds nuw i8, ptr %0, i64 720
  tail call void @llvm.memset.p0.i64(ptr noundef nonnull align 8 dereferenceable(20) %26, i8 0, i64 20, i1 false)
  %27 = getelementptr inbounds nuw i8, ptr %0, i64 744
  tail call void @llvm.memset.p0.i64(ptr noundef nonnull align 8 dereferenceable(20) %27, i8 0, i64 20, i1 false)
  %28 = getelementptr inbounds nuw i8, ptr %0, i64 768
  tail call void @llvm.memset.p0.i64(ptr noundef nonnull align 8 dereferenceable(20) %28, i8 0, i64 20, i1 false)
  %29 = getelementptr inbounds nuw i8, ptr %0, i64 792
  tail call void @llvm.memset.p0.i64(ptr noundef nonnull align 8 dereferenceable(20) %29, i8 0, i64 20, i1 false)
  %30 = getelementptr inbounds nuw i8, ptr %0, i64 816
  tail call void @llvm.memset.p0.i64(ptr noundef nonnull align 8 dereferenceable(20) %30, i8 0, i64 20, i1 false)
  %31 = getelementptr inbounds nuw i8, ptr %0, i64 840
  tail call void @llvm.memset.p0.i64(ptr noundef nonnull align 8 dereferenceable(20) %31, i8 0, i64 20, i1 false)
  %32 = getelementptr inbounds nuw i8, ptr %0, i64 864
  store i8 0, ptr %32, align 8, !tbaa !96
  tail call void @llvm.memset.p0.i64(ptr noundef nonnull align 8 dereferenceable(44) %19, i8 0, i64 44, i1 false)
  ret void

33:                                               ; preds = %10, %3
  %34 = landingpad { ptr, i32 }
          cleanup
  tail call void @_ZN3sls12bv_lookaheadD2Ev(ptr noundef nonnull align 8 dereferenceable(400) %7) #26
  resume { ptr, i32 } %34
}